; Function Attrs: mustprogress uwtable
define void @_ZNK8QuantLib11BondForward19performCalculationsEv(ptr noundef nonnull align 8 dereferenceable(240) %this) unnamed_addr #9 align 2 {
entry:
  %vtable = load ptr, ptr %this, align 8, !tbaa !33
  %vfn = getelementptr inbounds i8, ptr %vtable, i64 80
  %0 = load ptr, ptr %vfn, align 8
  %call = tail call noundef double %0(ptr noundef nonnull align 8 dereferenceable(240) %this)
  %underlyingSpotValue_ = getelementptr inbounds nuw i8, ptr %this, i64 112
  store double %call, ptr %underlyingSpotValue_, align 8, !tbaa !99
  %incomeDiscountCurve_ = getelementptr inbounds nuw i8, ptr %this, i64 208
  %vtable2 = load ptr, ptr %this, align 8, !tbaa !33
  %vfn3 = getelementptr inbounds i8, ptr %vtable2, i64 88
  %1 = load ptr, ptr %vfn3, align 8
  %call4 = tail call noundef double %1(ptr noundef nonnull align 8 dereferenceable(240) %this, ptr noundef nonnull align 8 dereferenceable(16) %incomeDiscountCurve_)
  %underlyingIncome_ = getelementptr inbounds nuw i8, ptr %this, i64 104
  store double %call4, ptr %underlyingIncome_, align 8, !tbaa !113
  tail call void @_ZNK8QuantLib7Forward19performCalculationsEv(ptr noundef nonnull align 8 dereferenceable(224) %this)
  ret void
}